target datalayout = "e-m:e-p270:32:32-p271:32:32-p272:64:64-i64:64-i128:128-f80:128-n8:16:32:64-S128"
target triple = "x86_64-pc-linux-gnu"

%struct.ConnectionType = type { ptr, ptr, ptr, ptr, ptr, ptr, ptr, ptr, ptr, ptr, ptr, ptr, ptr, ptr, ptr, ptr, ptr, ptr, ptr, ptr, ptr, ptr, ptr, ptr, ptr, ptr, ptr, ptr, ptr, ptr }

@connTypes = internal global [8 x ptr] zeroinitializer, align 16

; Function Attrs: nounwind uwtable
define dso_local i32 @connTypeHasPendingData(ptr noundef %0) #0 {
  %2 = alloca i32, align 4
  %3 = alloca ptr, align 8
  %4 = alloca ptr, align 8
  %5 = alloca i32, align 4
  %6 = alloca i32, align 4
  %7 = alloca i32, align 4
  store ptr %0, ptr %3, align 8, !tbaa !50
  call void @llvm.lifetime.start.p0(i64 8, ptr %4) #6
  call void @llvm.lifetime.start.p0(i64 4, ptr %5) #6
  call void @llvm.lifetime.start.p0(i64 4, ptr %6) #6
  store i32 0, ptr %6, align 4, !tbaa !14
  store i32 0, ptr %5, align 4, !tbaa !14
  br label %8

8:                                                ; preds = %33, %1
  %9 = load i32, ptr %5, align 4, !tbaa !14
  %10 = icmp slt i32 %9, 8
  br i1 %10, label %11, label %36

11:                                               ; preds = %8
  %12 = load i32, ptr %5, align 4, !tbaa !14
  %13 = sext i32 %12 to i64
  %14 = getelementptr inbounds [8 x ptr], ptr @connTypes, i64 0, i64 %13
  %15 = load ptr, ptr %14, align 8, !tbaa !5
  store ptr %15, ptr %4, align 8, !tbaa !5
  %16 = load ptr, ptr %4, align 8, !tbaa !5
  %17 = icmp ne ptr %16, null
  br i1 %17, label %18, label %32

18:                                               ; preds = %11
  %19 = load ptr, ptr %4, align 8, !tbaa !5
  %20 = getelementptr inbounds nuw %struct.ConnectionType, ptr %19, i32 0, i32 27
  %21 = load ptr, ptr %20, align 8, !tbaa !51
  %22 = icmp ne ptr %21, null
  br i1 %22, label %23, label %32

23:                                               ; preds = %18
  %24 = load ptr, ptr %4, align 8, !tbaa !5
  %25 = getelementptr inbounds nuw %struct.ConnectionType, ptr %24, i32 0, i32 27
  %26 = load ptr, ptr %25, align 8, !tbaa !51
  %27 = load ptr, ptr %3, align 8, !tbaa !50
  %28 = call i32 %26(ptr noundef %27)
  store i32 %28, ptr %6, align 4, !tbaa !14
  %29 = icmp ne i32 %28, 0
  br i1 %29, label %30, label %32

30:                                               ; preds = %23
  %31 = load i32, ptr %6, align 4, !tbaa !14
  store i32 %31, ptr %2, align 4
  store i32 1, ptr %7, align 4
  br label %38

32:                                               ; preds = %23, %18, %11
  br label %33

33:                                               ; preds = %32
  %34 = load i32, ptr %5, align 4, !tbaa !14
  %35 = add nsw i32 %34, 1
  store i32 %35, ptr %5, align 4, !tbaa !14
  br label %8, !llvm.loop !52

36:                                               ; preds = %8
  %37 = load i32, ptr %6, align 4, !tbaa !14
  store i32 %37, ptr %2, align 4
  store i32 1, ptr %7, align 4
  br label %38

38:                                               ; preds = %36, %30
  call void @llvm.lifetime.end.p0(i64 4, ptr %6) #6
  call void @llvm.lifetime.end.p0(i64 4, ptr %5) #6
  call void @llvm.lifetime.end.p0(i64 8, ptr %4) #6
  %39 = load i32, ptr %2, align 4
  ret i32 %39
}