; Function Attrs: nounwind uwtable
define dso_local i32 @connTypeHasPendingData(ptr noundef %0) local_unnamed_addr #0 {
  br label %2

2:                                                ; preds = %1, %10
  %indvars.iv = phi i64 [ 0, %1 ], [ %indvars.iv.next, %10 ]
  %3 = getelementptr inbounds nuw [8 x ptr], ptr @connTypes, i64 0, i64 %indvars.iv
  %4 = load ptr, ptr %3, align 8, !tbaa !10
  %.not = icmp eq ptr %4, null
  br i1 %.not, label %10, label %5

5:                                                ; preds = %2
  %6 = getelementptr inbounds nuw i8, ptr %4, i64 216
  %7 = load ptr, ptr %6, align 8, !tbaa !49
  %.not15 = icmp eq ptr %7, null
  br i1 %.not15, label %10, label %8

8:                                                ; preds = %5
  %9 = tail call i32 %7(ptr noundef %0) #4
  %.not16 = icmp eq i32 %9, 0
  br i1 %.not16, label %10, label %11

10:                                               ; preds = %2, %5, %8
  %indvars.iv.next = add nuw nsw i64 %indvars.iv, 1
  %exitcond.not = icmp eq i64 %indvars.iv.next, 8
  br i1 %exitcond.not, label %11, label %2, !llvm.loop !50

11:                                               ; preds = %10, %8
  %.010 = phi i32 [ %9, %8 ], [ 0, %10 ]
  ret i32 %.010
}